target datalayout = "e-m:e-p270:32:32-p271:32:32-p272:64:64-i64:64-i128:128-f80:128-n8:16:32:64-S128"
target triple = "x86_64-pc-linux-gnu"

%"struct.nanobind::detail::arg_data" = type { ptr, ptr, ptr, ptr, i8 }
%struct._object = type { i64, ptr }
%"struct.nanobind::detail::func_data_prelim" = type { [3 x ptr], ptr, ptr, ptr, ptr, i32, i16, i16, ptr, ptr, ptr, [0 x %"struct.nanobind::detail::arg_data"] }
%"struct.nanobind::detail::type_data" = type { i32, i32, ptr, ptr, ptr, ptr, ptr, ptr, ptr, ptr, %union.anon, ptr, ptr }
%union.anon = type { %struct.anon }
%struct.anon = type { ptr, ptr }
%"struct.nanobind::detail::cleanup_list" = type { i32, i32, ptr, [6 x ptr] }
%"struct.nanobind::detail::nb_inst" = type { %struct._object, i32, i32 }

@_Py_NoneStruct = external global %struct._object, align 8
@_ZTIN8nanobind17builtin_exceptionE = external constant ptr
@_ZTIN8nanobind12python_errorE = external constant ptr

; Function Attrs: mustprogress nounwind uwtable
define linkonce_odr noundef zeroext i1 @_ZN8nanobind6detail12cleanup_list4usedEv(ptr noundef nonnull align 8 dereferenceable(64) %0) #8 comdat align 2 {
  %2 = alloca ptr, align 8
  store ptr %0, ptr %2, align 8
  %3 = load ptr, ptr %2, align 8
  %4 = getelementptr inbounds nuw %"struct.nanobind::detail::cleanup_list", ptr %3, i32 0, i32 0
  %5 = load i32, ptr %4, align 8
  %6 = icmp ne i32 %5, 1
  ret i1 %6
}

; Function Attrs: inlinehint mustprogress nounwind uwtable
define linkonce_odr hidden noundef ptr @_ZN8nanobind6detail8inst_ptrEPNS0_7nb_instE(ptr noundef %0) #12 comdat {
  %2 = alloca ptr, align 8
  %3 = alloca ptr, align 8
  store ptr %0, ptr %2, align 8
  call void @llvm.lifetime.start.p0(i64 8, ptr %3) #22
  %4 = load ptr, ptr %2, align 8
  %5 = ptrtoint ptr %4 to i64
  %6 = load ptr, ptr %2, align 8
  %7 = getelementptr inbounds nuw %"struct.nanobind::detail::nb_inst", ptr %6, i32 0, i32 1
  %8 = load i32, ptr %7, align 8
  %9 = sext i32 %8 to i64
  %10 = add nsw i64 %5, %9
  %11 = inttoptr i64 %10 to ptr
  store ptr %11, ptr %3, align 8
  %12 = load ptr, ptr %2, align 8
  %13 = getelementptr inbounds nuw %"struct.nanobind::detail::nb_inst", ptr %12, i32 0, i32 2
  %14 = load i32, ptr %13, align 4
  %15 = lshr i32 %14, 2
  %16 = and i32 %15, 1
  %17 = icmp ne i32 %16, 0
  br i1 %17, label %18, label %20

18:                                               ; preds = %1
  %19 = load ptr, ptr %3, align 8
  br label %23

20:                                               ; preds = %1
  %21 = load ptr, ptr %3, align 8
  %22 = load ptr, ptr %21, align 8
  br label %23

23:                                               ; preds = %20, %18
  %24 = phi ptr [ %19, %18 ], [ %22, %20 ]
  call void @llvm.lifetime.end.p0(i64 8, ptr %3) #22
  ret ptr %24
}

; Function Attrs: alwaysinline mustprogress nounwind uwtable
define linkonce_odr hidden noundef ptr @_ZN8nanobind6detail12nb_type_dataEP11_typeobject(ptr noundef %0) #2 comdat {
  %2 = alloca ptr, align 8
  store ptr %0, ptr %2, align 8
  %3 = load ptr, ptr %2, align 8
  %4 = getelementptr inbounds nuw i8, ptr %3, i64 888
  ret ptr %4
}

; Function Attrs: mustprogress nounwind uwtable
define linkonce_odr void @_ZN8nanobind6detail12cleanup_listC2EP7_object(ptr noundef nonnull align 8 dereferenceable(64) %0, ptr noundef %1) unnamed_addr #8 comdat align 2 {
  %3 = alloca ptr, align 8
  %4 = alloca ptr, align 8
  store ptr %0, ptr %3, align 8
  store ptr %1, ptr %4, align 8
  %5 = load ptr, ptr %3, align 8
  %6 = getelementptr inbounds nuw %"struct.nanobind::detail::cleanup_list", ptr %5, i32 0, i32 0
  store i32 1, ptr %6, align 8
  %7 = getelementptr inbounds nuw %"struct.nanobind::detail::cleanup_list", ptr %5, i32 0, i32 1
  store i32 6, ptr %7, align 4
  %8 = getelementptr inbounds nuw %"struct.nanobind::detail::cleanup_list", ptr %5, i32 0, i32 2
  %9 = getelementptr inbounds nuw %"struct.nanobind::detail::cleanup_list", ptr %5, i32 0, i32 3
  %10 = getelementptr inbounds [6 x ptr], ptr %9, i64 0, i64 0
  store ptr %10, ptr %8, align 8
  %11 = load ptr, ptr %4, align 8
  %12 = getelementptr inbounds nuw %"struct.nanobind::detail::cleanup_list", ptr %5, i32 0, i32 3
  %13 = getelementptr inbounds [6 x ptr], ptr %12, i64 0, i64 0
  store ptr %11, ptr %13, align 8
  ret void
}

; Function Attrs: inlinehint mustprogress nounwind uwtable
define internal noundef i64 @_ZL18PyVectorcall_NARGSm(i64 noundef %0) #12 {
  %2 = alloca i64, align 8
  store i64 %0, ptr %2, align 8
  %3 = load i64, ptr %2, align 8
  %4 = and i64 %3, 9223372036854775807
  ret i64 %4
}

; Function Attrs: alwaysinline mustprogress nounwind uwtable
define linkonce_odr hidden noundef ptr @_ZN8nanobind6detail12nb_func_dataEPv(ptr noundef %0) #2 comdat {
  %2 = alloca ptr, align 8
  store ptr %0, ptr %2, align 8
  %3 = load ptr, ptr %2, align 8
  %4 = getelementptr inbounds nuw i8, ptr %3, i64 40
  ret ptr %4
}

; Function Attrs: mustprogress nounwind uwtable
define internal noundef ptr @_ZN8nanobind6detailL27nb_func_vectorcall_simple_1EP7_objectPKS2_mS2_(ptr noundef %0, ptr noundef %1, i64 noundef %2, ptr noundef %3) #8 personality ptr @__gxx_personality_v0 {
  %5 = alloca ptr, align 8
  %6 = alloca ptr, align 8
  %7 = alloca i64, align 8
  %8 = alloca ptr, align 8
  %9 = alloca ptr, align 8
  %10 = alloca i64, align 8
  %11 = alloca i8, align 1
  %12 = alloca ptr, align 8
  %13 = alloca ptr, align 8
  %14 = alloca ptr, align 8
  %15 = alloca %"struct.nanobind::detail::cleanup_list", align 8
  %16 = alloca [1 x i8], align 1
  %17 = alloca ptr, align 8
  %18 = alloca i32, align 4
  %19 = alloca ptr, align 8
  %20 = alloca ptr, align 8
  %21 = alloca ptr, align 8
  store ptr %0, ptr %5, align 8
  store ptr %1, ptr %6, align 8
  store i64 %2, ptr %7, align 8
  store ptr %3, ptr %8, align 8
  call void @llvm.lifetime.start.p0(i64 8, ptr %9) #22
  %22 = load ptr, ptr %5, align 8
  %23 = call noundef ptr @_ZN8nanobind6detail12nb_func_dataEPv(ptr noundef %22)
  store ptr %23, ptr %9, align 8
  call void @llvm.lifetime.start.p0(i64 8, ptr %10) #22
  %24 = load i64, ptr %7, align 8
  %25 = call noundef i64 @_ZL18PyVectorcall_NARGSm(i64 noundef %24)
  store i64 %25, ptr %10, align 8
  call void @llvm.lifetime.start.p0(i64 1, ptr %11) #22
  %26 = load ptr, ptr %9, align 8
  %27 = getelementptr inbounds nuw %"struct.nanobind::detail::func_data_prelim", ptr %26, i32 0, i32 5
  %28 = load i32, ptr %27, align 8
  %29 = and i32 %28, 2048
  %30 = icmp ne i32 %29, 0
  %31 = zext i1 %30 to i8
  store i8 %31, ptr %11, align 1
  call void @llvm.lifetime.start.p0(i64 8, ptr %12) #22
  store ptr null, ptr %12, align 8
  call void @llvm.lifetime.start.p0(i64 8, ptr %13) #22
  store ptr null, ptr %13, align 8
  %32 = load ptr, ptr %8, align 8
  %33 = icmp eq ptr %32, null
  br i1 %33, label %34, label %147

34:                                               ; preds = %4
  %35 = load i64, ptr %10, align 8
  %36 = icmp eq i64 %35, 1
  br i1 %36, label %37, label %147

37:                                               ; preds = %34
  %38 = load ptr, ptr %6, align 8
  %39 = getelementptr inbounds ptr, ptr %38, i64 0
  %40 = load ptr, ptr %39, align 8
  %41 = icmp ne ptr %40, @_Py_NoneStruct
  br i1 %41, label %42, label %147

42:                                               ; preds = %37
  call void @llvm.lifetime.start.p0(i64 8, ptr %14) #22
  %43 = load ptr, ptr %6, align 8
  %44 = getelementptr inbounds ptr, ptr %43, i64 0
  %45 = load ptr, ptr %44, align 8
  store ptr %45, ptr %14, align 8
  call void @llvm.lifetime.start.p0(i64 64, ptr %15) #22
  %46 = load ptr, ptr %14, align 8
  invoke void @_ZN8nanobind6detail12cleanup_listC2EP7_object(ptr noundef nonnull align 8 dereferenceable(64) %15, ptr noundef %46)
          to label %47 unwind label %163

47:                                               ; preds = %42
  call void @llvm.lifetime.start.p0(i64 1, ptr %16) #22
  %48 = load i8, ptr %11, align 1, !range !10, !noundef !11
  %49 = trunc i8 %48 to i1
  %50 = select i1 %49, i32 3, i32 1
  %51 = trunc i32 %50 to i8
  store i8 %51, ptr %16, align 1
  %52 = load ptr, ptr %9, align 8
  %53 = getelementptr inbounds nuw %"struct.nanobind::detail::func_data_prelim", ptr %52, i32 0, i32 2
  %54 = load ptr, ptr %53, align 8
  %55 = load ptr, ptr %9, align 8
  %56 = getelementptr inbounds nuw %"struct.nanobind::detail::func_data_prelim", ptr %55, i32 0, i32 0
  %57 = getelementptr inbounds [3 x ptr], ptr %56, i64 0, i64 0
  %58 = load ptr, ptr %6, align 8
  %59 = getelementptr inbounds [1 x i8], ptr %16, i64 0, i64 0
  %60 = load ptr, ptr %9, align 8
  %61 = getelementptr inbounds nuw %"struct.nanobind::detail::func_data_prelim", ptr %60, i32 0, i32 5
  %62 = load i32, ptr %61, align 8
  %63 = and i32 %62, 7
  %64 = invoke noundef ptr %54(ptr noundef %57, ptr noundef %58, ptr noundef %59, i32 noundef %63, ptr noundef %15)
          to label %65 unwind label %69

65:                                               ; preds = %47
  store ptr %64, ptr %13, align 8
  %66 = load ptr, ptr %13, align 8
  %67 = icmp eq ptr %66, inttoptr (i64 1 to ptr)
  br i1 %67, label %68, label %96

68:                                               ; preds = %65
  store ptr @_ZN8nanobind6detailL22nb_func_error_overloadEP7_objectPKS2_mS2_, ptr %12, align 8
  br label %137

69:                                               ; preds = %47
  %70 = landingpad { ptr, i32 }
          catch ptr @_ZTIN8nanobind17builtin_exceptionE
          catch ptr @_ZTIN8nanobind12python_errorE
          catch ptr null
  %71 = extractvalue { ptr, i32 } %70, 0
  store ptr %71, ptr %17, align 8
  %72 = extractvalue { ptr, i32 } %70, 1
  store i32 %72, ptr %18, align 4
  br label %73

73:                                               ; preds = %69
  %74 = load i32, ptr %18, align 4
  %75 = call i32 @llvm.eh.typeid.for.p0(ptr @_ZTIN8nanobind17builtin_exceptionE) #22
  %76 = icmp eq i32 %74, %75
  br i1 %76, label %77, label %84

77:                                               ; preds = %73
  call void @llvm.lifetime.start.p0(i64 8, ptr %21) #22
  %78 = load ptr, ptr %17, align 8
  %79 = call ptr @__cxa_begin_catch(ptr %78) #22
  store ptr %79, ptr %21, align 8
  %80 = load ptr, ptr %21, align 8
  %81 = invoke noundef zeroext i1 @_ZN8nanobind6detailL28set_builtin_exception_statusERNS_17builtin_exceptionE(ptr noundef nonnull align 8 dereferenceable(20) %80)
          to label %82 unwind label %163

82:                                               ; preds = %77
  br i1 %81, label %138, label %83

83:                                               ; preds = %82
  store ptr @_ZN8nanobind6detailL22nb_func_error_overloadEP7_objectPKS2_mS2_, ptr %12, align 8
  br label %138

84:                                               ; preds = %73
  %85 = call i32 @llvm.eh.typeid.for.p0(ptr @_ZTIN8nanobind12python_errorE) #22
  %86 = icmp eq i32 %74, %85
  br i1 %86, label %87, label %92

87:                                               ; preds = %84
  call void @llvm.lifetime.start.p0(i64 8, ptr %20) #22
  %88 = load ptr, ptr %17, align 8
  %89 = call ptr @__cxa_begin_catch(ptr %88) #22
  store ptr %89, ptr %20, align 8
  %90 = load ptr, ptr %20, align 8
  call void @_ZN8nanobind12python_error7restoreEv(ptr noundef nonnull align 8 dereferenceable(40) %90) #22
  invoke void @__cxa_end_catch()
          to label %91 unwind label %163

91:                                               ; preds = %87
  call void @llvm.lifetime.end.p0(i64 8, ptr %20) #22
  br label %140

92:                                               ; preds = %84
  %93 = load ptr, ptr %17, align 8
  %94 = call ptr @__cxa_begin_catch(ptr %93) #22
  call void @_ZN8nanobind6detailL29nb_func_convert_cpp_exceptionEv() #22
  invoke void @__cxa_end_catch()
          to label %95 unwind label %163

95:                                               ; preds = %92
  br label %140

96:                                               ; preds = %65
  %97 = load ptr, ptr %13, align 8
  %98 = icmp ne ptr %97, null
  br i1 %98, label %100, label %99

99:                                               ; preds = %96
  store ptr @_ZN8nanobind6detailL23nb_func_error_noconvertEP7_objectPKS2_mS2_, ptr %12, align 8
  br label %136

100:                                              ; preds = %96
  %101 = load i8, ptr %11, align 1, !range !10, !noundef !11
  %102 = trunc i8 %101 to i1
  br i1 %102, label %103, label %135

103:                                              ; preds = %100
  call void @llvm.lifetime.start.p0(i64 8, ptr %19) #22
  %104 = load ptr, ptr %14, align 8
  store ptr %104, ptr %19, align 8
  %105 = load ptr, ptr %19, align 8
  %106 = getelementptr inbounds nuw %"struct.nanobind::detail::nb_inst", ptr %105, i32 0, i32 2
  %107 = load i32, ptr %106, align 4
  %108 = and i32 %107, -17
  %109 = or i32 %108, 16
  store i32 %109, ptr %106, align 4
  %110 = load ptr, ptr %19, align 8
  %111 = getelementptr inbounds nuw %"struct.nanobind::detail::nb_inst", ptr %110, i32 0, i32 2
  %112 = load i32, ptr %111, align 4
  %113 = and i32 %112, -4
  %114 = or i32 %113, 2
  store i32 %114, ptr %111, align 4
  %115 = load ptr, ptr %19, align 8
  %116 = getelementptr inbounds nuw %"struct.nanobind::detail::nb_inst", ptr %115, i32 0, i32 2
  %117 = load i32, ptr %116, align 4
  %118 = lshr i32 %117, 7
  %119 = and i32 %118, 1
  %120 = icmp ne i32 %119, 0
  %121 = zext i1 %120 to i64
  %122 = call i64 @llvm.expect.i64(i64 %121, i64 0)
  %123 = icmp ne i64 %122, 0
  br i1 %123, label %124, label %134

124:                                              ; preds = %103
  %125 = load ptr, ptr %14, align 8
  %126 = getelementptr inbounds nuw %struct._object, ptr %125, i32 0, i32 1
  %127 = load ptr, ptr %126, align 8
  %128 = call noundef ptr @_ZN8nanobind6detail12nb_type_dataEP11_typeobject(ptr noundef %127) #22
  %129 = getelementptr inbounds nuw %"struct.nanobind::detail::type_data", ptr %128, i32 0, i32 11
  %130 = load ptr, ptr %129, align 8
  %131 = load ptr, ptr %19, align 8
  %132 = call noundef ptr @_ZN8nanobind6detail8inst_ptrEPNS0_7nb_instE(ptr noundef %131)
  %133 = load ptr, ptr %14, align 8
  call void %130(ptr noundef %132, ptr noundef %133) #22
  br label %134

134:                                              ; preds = %124, %103
  call void @llvm.lifetime.end.p0(i64 8, ptr %19) #22
  br label %135

135:                                              ; preds = %134, %100
  br label %136

136:                                              ; preds = %135, %99
  br label %137

137:                                              ; preds = %136, %68
  br label %140

138:                                              ; preds = %83, %82
  invoke void @__cxa_end_catch()
          to label %139 unwind label %163

139:                                              ; preds = %138
  call void @llvm.lifetime.end.p0(i64 8, ptr %21) #22
  br label %140

140:                                              ; preds = %139, %91, %95, %137
  %141 = call noundef zeroext i1 @_ZN8nanobind6detail12cleanup_list4usedEv(ptr noundef nonnull align 8 dereferenceable(64) %15)
  %142 = zext i1 %141 to i64
  %143 = call i64 @llvm.expect.i64(i64 %142, i64 0)
  %144 = icmp ne i64 %143, 0
  br i1 %144, label %145, label %146

145:                                              ; preds = %140
  call void @_ZN8nanobind6detail12cleanup_list7releaseEv(ptr noundef nonnull align 8 dereferenceable(64) %15) #22
  br label %146

146:                                              ; preds = %145, %140
  call void @llvm.lifetime.end.p0(i64 1, ptr %16) #22
  call void @llvm.lifetime.end.p0(i64 64, ptr %15) #22
  call void @llvm.lifetime.end.p0(i64 8, ptr %14) #22
  br label %148

147:                                              ; preds = %37, %34, %4
  store ptr @_ZN8nanobind6detailL22nb_func_error_overloadEP7_objectPKS2_mS2_, ptr %12, align 8
  br label %148

148:                                              ; preds = %147, %146
  %149 = load ptr, ptr %12, align 8
  %150 = icmp ne ptr %149, null
  %151 = zext i1 %150 to i64
  %152 = call i64 @llvm.expect.i64(i64 %151, i64 0)
  %153 = icmp ne i64 %152, 0
  br i1 %153, label %154, label %161

154:                                              ; preds = %148
  %155 = load ptr, ptr %12, align 8
  %156 = load ptr, ptr %5, align 8
  %157 = load ptr, ptr %6, align 8
  %158 = load i64, ptr %10, align 8
  %159 = load ptr, ptr %8, align 8
  %160 = call noundef ptr %155(ptr noundef %156, ptr noundef %157, i64 noundef %158, ptr noundef %159) #22
  store ptr %160, ptr %13, align 8
  br label %161

161:                                              ; preds = %154, %148
  %162 = load ptr, ptr %13, align 8
  call void @llvm.lifetime.end.p0(i64 8, ptr %13) #22
  call void @llvm.lifetime.end.p0(i64 8, ptr %12) #22
  call void @llvm.lifetime.end.p0(i64 1, ptr %11) #22
  call void @llvm.lifetime.end.p0(i64 8, ptr %10) #22
  call void @llvm.lifetime.end.p0(i64 8, ptr %9) #22
  ret ptr %162

163:                                              ; preds = %138, %77, %87, %92, %42
  %164 = landingpad { ptr, i32 }
          catch ptr null
  %165 = extractvalue { ptr, i32 } %164, 0
  call void @__clang_call_terminate(ptr %165) #24
  unreachable
}