; Function Attrs: mustprogress nounwind uwtable
define internal noundef ptr @_ZN8nanobind6detailL27nb_func_vectorcall_simple_1EP7_objectPKS2_mS2_(ptr noundef %0, ptr noundef %1, i64 noundef %2, ptr noundef %3) #5 personality ptr @__gxx_personality_v0 {
  %5 = alloca %"struct.nanobind::detail::cleanup_list", align 8
  %6 = alloca [1 x i8], align 1
  %7 = getelementptr inbounds nuw i8, ptr %0, i64 40
  %8 = and i64 %2, 9223372036854775807
  %9 = getelementptr inbounds nuw i8, ptr %0, i64 96
  %10 = load i32, ptr %9, align 8
  %11 = and i32 %10, 2048
  %.not = icmp eq i32 %11, 0
  %12 = icmp eq ptr %3, null
  %13 = icmp eq i64 %8, 1
  %or.cond = and i1 %12, %13
  br i1 %or.cond, label %14, label %.thread

14:                                               ; preds = %4
  %15 = load ptr, ptr %1, align 8
  %.not43 = icmp eq ptr %15, @_Py_NoneStruct
  br i1 %.not43, label %.thread, label %16

16:                                               ; preds = %14
  call void @llvm.lifetime.start.p0(i64 64, ptr nonnull %5) #25
  store i32 1, ptr %5, align 8
  %17 = getelementptr inbounds nuw i8, ptr %5, i64 4
  store i32 6, ptr %17, align 4
  %18 = getelementptr inbounds nuw i8, ptr %5, i64 8
  %19 = getelementptr inbounds nuw i8, ptr %5, i64 16
  store ptr %19, ptr %18, align 8
  store ptr %15, ptr %19, align 8
  call void @llvm.lifetime.start.p0(i64 1, ptr nonnull %6) #25
  %20 = select i1 %.not, i8 1, i8 3
  store i8 %20, ptr %6, align 1
  %21 = getelementptr inbounds nuw i8, ptr %0, i64 72
  %22 = load ptr, ptr %21, align 8
  %23 = and i32 %10, 7
  %24 = invoke noundef ptr %22(ptr noundef nonnull %7, ptr noundef nonnull %1, ptr noundef nonnull %6, i32 noundef %23, ptr noundef nonnull %5)
          to label %25 unwind label %26

25:                                               ; preds = %16
  %magicptr = ptrtoint ptr %24 to i64
  switch i64 %magicptr, label %43 [
    i64 1, label %65
    i64 0, label %42
  ]

26:                                               ; preds = %16
  %27 = landingpad { ptr, i32 }
          catch ptr @_ZTIN8nanobind17builtin_exceptionE
          catch ptr @_ZTIN8nanobind12python_errorE
          catch ptr null
  %28 = extractvalue { ptr, i32 } %27, 0
  %29 = extractvalue { ptr, i32 } %27, 1
  %30 = call i32 @llvm.eh.typeid.for.p0(ptr nonnull @_ZTIN8nanobind17builtin_exceptionE) #25
  %31 = icmp eq i32 %29, %30
  br i1 %31, label %32, label %36

32:                                               ; preds = %26
  %33 = call ptr @__cxa_begin_catch(ptr %28) #25
  %34 = invoke fastcc noundef zeroext i1 @_ZN8nanobind6detailL28set_builtin_exception_statusERNS_17builtin_exceptionE(ptr noundef nonnull align 8 dereferenceable(20) %33)
          to label %35 unwind label %71

35:                                               ; preds = %32
  %spec.select = select i1 %34, ptr null, ptr @_ZN8nanobind6detailL22nb_func_error_overloadEP7_objectPKS2_mS2_
  invoke void @__cxa_end_catch()
          to label %65 unwind label %71

36:                                               ; preds = %26
  %37 = call i32 @llvm.eh.typeid.for.p0(ptr nonnull @_ZTIN8nanobind12python_errorE) #25
  %38 = icmp eq i32 %29, %37
  %39 = call ptr @__cxa_begin_catch(ptr %28) #25
  br i1 %38, label %40, label %41

40:                                               ; preds = %36
  call void @_ZN8nanobind12python_error7restoreEv(ptr noundef nonnull align 8 dereferenceable(40) %39) #25
  br label %.invoke

41:                                               ; preds = %36
  call fastcc void @_ZN8nanobind6detailL29nb_func_convert_cpp_exceptionEv() #25
  br label %.invoke

.invoke:                                          ; preds = %40, %41
  invoke void @__cxa_end_catch()
          to label %65 unwind label %71

42:                                               ; preds = %25
  br label %65

43:                                               ; preds = %25
  br i1 %.not, label %65, label %44

44:                                               ; preds = %43
  %45 = getelementptr inbounds nuw i8, ptr %15, i64 20
  %46 = load i32, ptr %45, align 4
  %47 = and i32 %46, -20
  %48 = or disjoint i32 %47, 18
  store i32 %48, ptr %45, align 4
  %49 = and i32 %46, 128
  %.not45 = icmp eq i32 %49, 0
  br i1 %.not45, label %65, label %50, !prof !8

50:                                               ; preds = %44
  %51 = getelementptr inbounds nuw i8, ptr %15, i64 8
  %52 = load ptr, ptr %51, align 8
  %53 = getelementptr inbounds nuw i8, ptr %52, i64 976
  %54 = load ptr, ptr %53, align 8
  %55 = ptrtoint ptr %15 to i64
  %56 = getelementptr inbounds nuw i8, ptr %15, i64 16
  %57 = load i32, ptr %56, align 8
  %58 = sext i32 %57 to i64
  %59 = add nsw i64 %58, %55
  %60 = inttoptr i64 %59 to ptr
  %61 = and i32 %46, 4
  %.not.i = icmp eq i32 %61, 0
  br i1 %.not.i, label %62, label %_ZN8nanobind6detail8inst_ptrEPNS0_7nb_instE.exit

62:                                               ; preds = %50
  %63 = load ptr, ptr %60, align 8
  br label %_ZN8nanobind6detail8inst_ptrEPNS0_7nb_instE.exit

_ZN8nanobind6detail8inst_ptrEPNS0_7nb_instE.exit: ; preds = %50, %62
  %64 = phi ptr [ %63, %62 ], [ %60, %50 ]
  call void %54(ptr noundef %64, ptr noundef %15) #25
  br label %65

65:                                               ; preds = %.invoke, %35, %44, %_ZN8nanobind6detail8inst_ptrEPNS0_7nb_instE.exit, %25, %43, %42
  %.036 = phi ptr [ %24, %43 ], [ null, %42 ], [ inttoptr (i64 1 to ptr), %25 ], [ %24, %_ZN8nanobind6detail8inst_ptrEPNS0_7nb_instE.exit ], [ %24, %44 ], [ null, %35 ], [ null, %.invoke ]
  %.1 = phi ptr [ null, %43 ], [ @_ZN8nanobind6detailL23nb_func_error_noconvertEP7_objectPKS2_mS2_, %42 ], [ @_ZN8nanobind6detailL22nb_func_error_overloadEP7_objectPKS2_mS2_, %25 ], [ null, %_ZN8nanobind6detail8inst_ptrEPNS0_7nb_instE.exit ], [ null, %44 ], [ %spec.select, %35 ], [ null, %.invoke ]
  %66 = load i32, ptr %5, align 8
  %.not51 = icmp eq i32 %66, 1
  br i1 %.not51, label %68, label %67, !prof !8

67:                                               ; preds = %65
  call void @_ZN8nanobind6detail12cleanup_list7releaseEv(ptr noundef nonnull align 8 dereferenceable(64) %5) #25
  br label %68

68:                                               ; preds = %65, %67
  call void @llvm.lifetime.end.p0(i64 1, ptr nonnull %6) #25
  call void @llvm.lifetime.end.p0(i64 64, ptr nonnull %5) #25
  %.not46 = icmp eq ptr %.1, null
  br i1 %.not46, label %70, label %.thread, !prof !37

.thread:                                          ; preds = %4, %14, %68
  %.250 = phi ptr [ %.1, %68 ], [ @_ZN8nanobind6detailL22nb_func_error_overloadEP7_objectPKS2_mS2_, %14 ], [ @_ZN8nanobind6detailL22nb_func_error_overloadEP7_objectPKS2_mS2_, %4 ]
  %69 = call noundef ptr %.250(ptr noundef nonnull %0, ptr noundef %1, i64 noundef %8, ptr noundef %3) #25, !callees !36
  br label %70

70:                                               ; preds = %.thread, %68
  %.238 = phi ptr [ %69, %.thread ], [ %.036, %68 ]
  ret ptr %.238

71:                                               ; preds = %.invoke, %35, %32
  %72 = landingpad { ptr, i32 }
          catch ptr null
  %73 = extractvalue { ptr, i32 } %72, 0
  call void @__clang_call_terminate(ptr %73) #26
  unreachable
}